(lp0
(lp1
I0
aI353
aa(lp2
I1
aI149
aa(lp3
I2
aI213
aa(lp4
I1
aI119
aa(lp5
I2
aI317
aa(lp6
I0
aI308
aa(lp7
I0
aI172
aa(lp8
I0
aI127
aa(lp9
I1
aI355
aa(lp10
I2
aI238
aa(lp11
I0
aI211
aa(lp12
I0
aI98
aa(lp13
I1
aI285
aa(lp14
I1
aI244
aa(lp15
I0
aI270
aa(lp16
I1
aI111
aa(lp17
I2
aI133
aa(lp18
I0
aI333
aa(lp19
I2
aI335
aa(lp20
I0
aI85
aa(lp21
I1
aI56
aa(lp22
I0
aI247
aa(lp23
I2
aI296
aa(lp24
I1
aI129
aa(lp25
I0
aI274
aa(lp26
I1
aI36
aa(lp27
I1
aI63
aa(lp28
I1
aI116
aa(lp29
I2
aI43
aa(lp30
I2
aI89
aa(lp31
I2
aI159
aa(lp32
I1
aI141
aa(lp33
I1
aI263
aa(lp34
I0
aI292
aa(lp35
I0
aI136
aa(lp36
I1
aI308
aa(lp37
I1
aI177
aa(lp38
I0
aI255
aa(lp39
I0
aI4
aa(lp40
I2
aI332
aa(lp41
I1
aI243
aa(lp42
I0
aI162
aa(lp43
I2
aI152
aa(lp44
I2
aI122
aa(lp45
I1
aI328
aa(lp46
I2
aI330
aa(lp47
I0
aI48
aa(lp48
I0
aI69
aa(lp49
I2
aI278
aa(lp50
I0
aI100
aa(lp51
I2
aI285
aa(lp52
I2
aI279
aa(lp53
I2
aI195
aa(lp54
I2
aI236
aa(lp55
I2
aI253
aa(lp56
I2
aI350
aa(lp57
I0
aI103
aa(lp58
I1
aI99
aa(lp59
I0
aI163
aa(lp60
I1
aI124
aa(lp61
I0
aI340
aa(lp62
I2
aI323
aa(lp63
I0
aI129
aa(lp64
I2
aI70
aa(lp65
I1
aI22
aa(lp66
I1
aI179
aa(lp67
I1
aI190
aa(lp68
I2
aI175
aa(lp69
I2
aI263
aa(lp70
I1
aI348
aa(lp71
I0
aI327
aa(lp72
I1
aI43
aa(lp73
I1
aI197
aa(lp74
I0
aI83
aa(lp75
I0
aI232
aa(lp76
I0
aI36
aa(lp77
I0
aI11
aa(lp78
I0
aI284
aa(lp79
I1
aI83
aa(lp80
I0
aI304
aa(lp81
I2
aI146
aa(lp82
I1
aI46
aa(lp83
I0
aI299
aa(lp84
I0
aI153
aa(lp85
I1
aI80
aa(lp86
I2
aI234
aa(lp87
I0
aI68
aa(lp88
I1
aI179
aa(lp89
I1
aI171
aa(lp90
I0
aI273
aa(lp91
I0
aI216
aa(lp92
I1
aI199
aa(lp93
I0
aI26
aa(lp94
I1
aI219
aa(lp95
I1
aI228
aa(lp96
I0
aI302
aa(lp97
I0
aI151
aa(lp98
I1
aI120
aa(lp99
I1
aI189
aa(lp100
I1
aI204
aa.