(lp0
(lp1
I2
aI264
aa(lp2
I1
aI274
aa(lp3
I1
aI196
aa(lp4
I2
aI127
aa(lp5
I0
aI232
aa(lp6
I1
aI240
aa(lp7
I1
aI101
aa(lp8
I0
aI64
aa(lp9
I0
aI360
aa(lp10
I0
aI68
aa(lp11
I0
aI185
aa(lp12
I2
aI28
aa(lp13
I0
aI27
aa(lp14
I2
aI202
aa(lp15
I2
aI224
aa(lp16
I0
aI334
aa(lp17
I0
aI37
aa(lp18
I2
aI315
aa(lp19
I1
aI174
aa(lp20
I1
aI38
aa(lp21
I2
aI227
aa(lp22
I2
aI334
aa(lp23
I0
aI42
aa(lp24
I0
aI277
aa(lp25
I2
aI43
aa(lp26
I0
aI233
aa(lp27
I2
aI122
aa(lp28
I1
aI90
aa(lp29
I2
aI298
aa(lp30
I0
aI190
aa(lp31
I1
aI263
aa(lp32
I0
aI73
aa(lp33
I0
aI125
aa(lp34
I1
aI240
aa(lp35
I0
aI219
aa(lp36
I2
aI352
aa(lp37
I1
aI255
aa(lp38
I2
aI76
aa(lp39
I1
aI175
aa(lp40
I0
aI347
aa(lp41
I2
aI326
aa(lp42
I1
aI133
aa(lp43
I2
aI23
aa(lp44
I0
aI219
aa(lp45
I2
aI77
aa(lp46
I0
aI254
aa(lp47
I2
aI360
aa(lp48
I2
aI164
aa(lp49
I1
aI143
aa(lp50
I2
aI199
aa(lp51
I0
aI319
aa(lp52
I0
aI16
aa(lp53
I2
aI122
aa(lp54
I0
aI354
aa(lp55
I1
aI181
aa(lp56
I0
aI105
aa(lp57
I2
aI253
aa(lp58
I1
aI286
aa(lp59
I0
aI224
aa(lp60
I0
aI83
aa(lp61
I0
aI54
aa(lp62
I0
aI280
aa(lp63
I0
aI198
aa(lp64
I1
aI76
aa(lp65
I2
aI339
aa(lp66
I2
aI258
aa(lp67
I2
aI124
aa(lp68
I1
aI153
aa(lp69
I1
aI273
aa(lp70
I0
aI303
aa(lp71
I1
aI268
aa(lp72
I2
aI59
aa(lp73
I0
aI128
aa(lp74
I2
aI343
aa(lp75
I2
aI302
aa(lp76
I2
aI269
aa(lp77
I0
aI75
aa(lp78
I2
aI36
aa(lp79
I1
aI298
aa(lp80
I0
aI227
aa(lp81
I0
aI322
aa(lp82
I2
aI3
aa(lp83
I1
aI200
aa(lp84
I0
aI63
aa(lp85
I0
aI220
aa(lp86
I0
aI156
aa(lp87
I2
aI281
aa(lp88
I0
aI180
aa(lp89
I1
aI278
aa(lp90
I0
aI88
aa(lp91
I1
aI253
aa(lp92
I2
aI268
aa(lp93
I1
aI240
aa(lp94
I2
aI166
aa(lp95
I0
aI298
aa(lp96
I0
aI332
aa(lp97
I1
aI178
aa(lp98
I1
aI342
aa(lp99
I1
aI63
aa(lp100
I1
aI69
aa.