(lp0
(lp1
I1
aI112
aa(lp2
I2
aI266
aa(lp3
I1
aI116
aa(lp4
I0
aI189
aa(lp5
I1
aI319
aa(lp6
I2
aI263
aa(lp7
I0
aI116
aa(lp8
I0
aI278
aa(lp9
I2
aI60
aa(lp10
I1
aI237
aa(lp11
I2
aI266
aa(lp12
I1
aI123
aa(lp13
I2
aI166
aa(lp14
I0
aI38
aa(lp15
I0
aI37
aa(lp16
I1
aI326
aa(lp17
I2
aI182
aa(lp18
I0
aI59
aa(lp19
I0
aI117
aa(lp20
I2
aI258
aa(lp21
I0
aI222
aa(lp22
I1
aI200
aa(lp23
I2
aI358
aa(lp24
I1
aI335
aa(lp25
I1
aI322
aa(lp26
I1
aI37
aa(lp27
I1
aI222
aa(lp28
I1
aI75
aa(lp29
I0
aI156
aa(lp30
I2
aI229
aa(lp31
I1
aI197
aa(lp32
I2
aI202
aa(lp33
I0
aI23
aa(lp34
I2
aI9
aa(lp35
I2
aI300
aa(lp36
I0
aI113
aa(lp37
I0
aI125
aa(lp38
I1
aI120
aa(lp39
I2
aI126
aa(lp40
I2
aI351
aa(lp41
I1
aI217
aa(lp42
I2
aI170
aa(lp43
I0
aI242
aa(lp44
I1
aI284
aa(lp45
I0
aI164
aa(lp46
I2
aI218
aa(lp47
I2
aI244
aa(lp48
I1
aI34
aa(lp49
I2
aI135
aa(lp50
I2
aI51
aa(lp51
I2
aI244
aa(lp52
I2
aI262
aa(lp53
I2
aI57
aa(lp54
I0
aI254
aa(lp55
I0
aI187
aa(lp56
I1
aI303
aa(lp57
I2
aI175
aa(lp58
I2
aI72
aa(lp59
I2
aI60
aa(lp60
I2
aI44
aa(lp61
I2
aI31
aa(lp62
I2
aI295
aa(lp63
I0
aI328
aa(lp64
I2
aI345
aa(lp65
I2
aI104
aa(lp66
I2
aI165
aa(lp67
I1
aI343
aa(lp68
I0
aI190
aa(lp69
I2
aI264
aa(lp70
I1
aI330
aa(lp71
I1
aI276
aa(lp72
I2
aI146
aa(lp73
I2
aI276
aa(lp74
I2
aI286
aa(lp75
I2
aI64
aa(lp76
I2
aI313
aa(lp77
I0
aI16
aa(lp78
I0
aI183
aa(lp79
I1
aI51
aa(lp80
I0
aI167
aa(lp81
I0
aI13
aa(lp82
I0
aI198
aa(lp83
I2
aI204
aa(lp84
I1
aI221
aa(lp85
I0
aI285
aa(lp86
I1
aI112
aa(lp87
I0
aI77
aa(lp88
I1
aI330
aa(lp89
I2
aI186
aa(lp90
I0
aI48
aa(lp91
I0
aI142
aa(lp92
I1
aI50
aa(lp93
I0
aI29
aa(lp94
I2
aI192
aa(lp95
I1
aI339
aa(lp96
I1
aI235
aa(lp97
I1
aI219
aa(lp98
I2
aI20
aa(lp99
I2
aI160
aa(lp100
I2
aI149
aa.